target datalayout = "e-m:e-p270:32:32-p271:32:32-p272:64:64-i64:64-i128:128-f80:128-n8:16:32:64-S128"
target triple = "x86_64-pc-linux-gnu"

%struct.Mio_LibraryStruct_t_ = type { ptr, i32, ptr, ptr, ptr, ptr, ptr, ptr, ptr, ptr, ptr, ptr, ptr, ptr, ptr, ptr, i32, i32, i32, ptr, ptr, ptr, i32, ptr, ptr, ptr, ptr, [3 x ptr], [3 x ptr] }

@stdout = external global ptr, align 8
@.str = private unnamed_addr constant [33 x i8] c"Read %d gates from exclude file\0A\00", align 1
@.str.1 = private unnamed_addr constant [8 x i8] c".genlib\00", align 1
@.str.2 = private unnamed_addr constant [62 x i8] c"Warning: Read extended genlib format but ignoring extensions\0A\00", align 1

; Function Attrs: inlinehint nounwind uwtable
define internal ptr @Abc_UtilStrsav(ptr noundef %0) #5 {
  %2 = alloca ptr, align 8
  store ptr %0, ptr %2, align 8, !tbaa !3
  %3 = load ptr, ptr %2, align 8, !tbaa !3
  %4 = icmp ne ptr %3, null
  br i1 %4, label %5, label %13

5:                                                ; preds = %1
  %6 = load ptr, ptr %2, align 8, !tbaa !3
  %7 = call i64 @strlen(ptr noundef %6) #11
  %8 = add i64 %7, 1
  %9 = mul i64 1, %8
  %10 = call noalias ptr @malloc(i64 noundef %9) #12
  %11 = load ptr, ptr %2, align 8, !tbaa !3
  %12 = call ptr @strcpy(ptr noundef %10, ptr noundef %11) #10
  br label %14

13:                                               ; preds = %1
  br label %14

14:                                               ; preds = %13, %5
  %15 = phi ptr [ %12, %5 ], [ null, %13 ]
  ret ptr %15
}

; Function Attrs: nounwind uwtable
define ptr @Mio_LibraryRead(ptr noundef %0, ptr noundef %1, ptr noundef %2, i32 noundef %3, i32 noundef %4) #0 {
  %6 = alloca ptr, align 8
  %7 = alloca ptr, align 8
  %8 = alloca ptr, align 8
  %9 = alloca ptr, align 8
  %10 = alloca i32, align 4
  %11 = alloca i32, align 4
  %12 = alloca ptr, align 8
  %13 = alloca i32, align 4
  %14 = alloca ptr, align 8
  %15 = alloca ptr, align 8
  %16 = alloca i32, align 4
  store ptr %0, ptr %7, align 8, !tbaa !3
  store ptr %1, ptr %8, align 8, !tbaa !3
  store ptr %2, ptr %9, align 8, !tbaa !3
  store i32 %3, ptr %10, align 4, !tbaa !8
  store i32 %4, ptr %11, align 4, !tbaa !8
  call void @llvm.lifetime.start.p0(i64 8, ptr %12) #10
  call void @llvm.lifetime.start.p0(i64 4, ptr %13) #10
  call void @llvm.lifetime.start.p0(i64 8, ptr %14) #10
  call void @llvm.lifetime.start.p0(i64 8, ptr %15) #10
  store ptr null, ptr %15, align 8, !tbaa !10
  %17 = load ptr, ptr %9, align 8, !tbaa !3
  %18 = icmp ne ptr %17, null
  br i1 %18, label %19, label %31

19:                                               ; preds = %5
  %20 = call ptr @st__init_table(ptr noundef @strcmp, ptr noundef @st__strhash)
  store ptr %20, ptr %15, align 8, !tbaa !10
  %21 = load ptr, ptr %9, align 8, !tbaa !3
  %22 = load ptr, ptr %15, align 8, !tbaa !10
  %23 = call i32 @Mio_LibraryReadExclude(ptr noundef %21, ptr noundef %22)
  store i32 %23, ptr %13, align 4, !tbaa !8
  %24 = icmp eq i32 %23, -1
  br i1 %24, label %25, label %27

25:                                               ; preds = %19
  %26 = load ptr, ptr %15, align 8, !tbaa !10
  call void @st__free_table(ptr noundef %26)
  store ptr null, ptr %15, align 8, !tbaa !10
  store ptr null, ptr %6, align 8
  store i32 1, ptr %16, align 4
  br label %103

27:                                               ; preds = %19
  %28 = load ptr, ptr @stdout, align 8, !tbaa !12
  %29 = load i32, ptr %13, align 4, !tbaa !8
  %30 = call i32 (ptr, ptr, ...) @fprintf(ptr noundef %28, ptr noundef @.str, i32 noundef %29) #10
  br label %31

31:                                               ; preds = %27, %5
  %32 = load ptr, ptr %8, align 8, !tbaa !3
  %33 = call ptr @Abc_UtilStrsav(ptr noundef %32)
  store ptr %33, ptr %14, align 8, !tbaa !3
  %34 = load ptr, ptr %8, align 8, !tbaa !3
  %35 = icmp eq ptr %34, null
  br i1 %35, label %36, label %42

36:                                               ; preds = %31
  %37 = load ptr, ptr %7, align 8, !tbaa !3
  %38 = load ptr, ptr %15, align 8, !tbaa !10
  %39 = load i32, ptr %10, align 4, !tbaa !8
  %40 = load i32, ptr %11, align 4, !tbaa !8
  %41 = call ptr @Mio_LibraryReadOne(ptr noundef %37, i32 noundef 0, ptr noundef %38, i32 noundef %39, i32 noundef %40)
  store ptr %41, ptr %12, align 8, !tbaa !14
  br label %57

42:                                               ; preds = %31
  %43 = load ptr, ptr %8, align 8, !tbaa !3
  %44 = load ptr, ptr %15, align 8, !tbaa !10
  %45 = load i32, ptr %10, align 4, !tbaa !8
  %46 = load i32, ptr %11, align 4, !tbaa !8
  %47 = call ptr @Mio_LibraryReadBuffer(ptr noundef %43, i32 noundef 0, ptr noundef %44, i32 noundef %45, i32 noundef %46)
  store ptr %47, ptr %12, align 8, !tbaa !14
  %48 = load ptr, ptr %12, align 8, !tbaa !14
  %49 = icmp ne ptr %48, null
  br i1 %49, label %50, label %56

50:                                               ; preds = %42
  %51 = load ptr, ptr %7, align 8, !tbaa !3
  %52 = call ptr @Extra_FileNameGenericAppend(ptr noundef %51, ptr noundef @.str.1)
  %53 = call ptr @Abc_UtilStrsav(ptr noundef %52)
  %54 = load ptr, ptr %12, align 8, !tbaa !14
  %55 = getelementptr inbounds nuw %struct.Mio_LibraryStruct_t_, ptr %54, i32 0, i32 0
  store ptr %53, ptr %55, align 8, !tbaa !16
  br label %56

56:                                               ; preds = %50, %42
  br label %57

57:                                               ; preds = %56, %36
  %58 = load ptr, ptr %12, align 8, !tbaa !14
  %59 = icmp eq ptr %58, null
  br i1 %59, label %60, label %90

60:                                               ; preds = %57
  %61 = load ptr, ptr %8, align 8, !tbaa !3
  %62 = icmp eq ptr %61, null
  br i1 %62, label %63, label %69

63:                                               ; preds = %60
  %64 = load ptr, ptr %7, align 8, !tbaa !3
  %65 = load ptr, ptr %15, align 8, !tbaa !10
  %66 = load i32, ptr %10, align 4, !tbaa !8
  %67 = load i32, ptr %11, align 4, !tbaa !8
  %68 = call ptr @Mio_LibraryReadOne(ptr noundef %64, i32 noundef 1, ptr noundef %65, i32 noundef %66, i32 noundef %67)
  store ptr %68, ptr %12, align 8, !tbaa !14
  br label %84

69:                                               ; preds = %60
  %70 = load ptr, ptr %14, align 8, !tbaa !3
  %71 = load ptr, ptr %15, align 8, !tbaa !10
  %72 = load i32, ptr %10, align 4, !tbaa !8
  %73 = load i32, ptr %11, align 4, !tbaa !8
  %74 = call ptr @Mio_LibraryReadBuffer(ptr noundef %70, i32 noundef 1, ptr noundef %71, i32 noundef %72, i32 noundef %73)
  store ptr %74, ptr %12, align 8, !tbaa !14
  %75 = load ptr, ptr %12, align 8, !tbaa !14
  %76 = icmp ne ptr %75, null
  br i1 %76, label %77, label %83

77:                                               ; preds = %69
  %78 = load ptr, ptr %7, align 8, !tbaa !3
  %79 = call ptr @Extra_FileNameGenericAppend(ptr noundef %78, ptr noundef @.str.1)
  %80 = call ptr @Abc_UtilStrsav(ptr noundef %79)
  %81 = load ptr, ptr %12, align 8, !tbaa !14
  %82 = getelementptr inbounds nuw %struct.Mio_LibraryStruct_t_, ptr %81, i32 0, i32 0
  store ptr %80, ptr %82, align 8, !tbaa !16
  br label %83

83:                                               ; preds = %77, %69
  br label %84

84:                                               ; preds = %83, %63
  %85 = load ptr, ptr %12, align 8, !tbaa !14
  %86 = icmp ne ptr %85, null
  br i1 %86, label %87, label %89

87:                                               ; preds = %84
  %88 = call i32 (ptr, ...) @printf(ptr noundef @.str.2)
  br label %89

89:                                               ; preds = %87, %84
  br label %90

90:                                               ; preds = %89, %57
  %91 = load ptr, ptr %14, align 8, !tbaa !3
  %92 = icmp ne ptr %91, null
  br i1 %92, label %93, label %95

93:                                               ; preds = %90
  %94 = load ptr, ptr %14, align 8, !tbaa !3
  call void @free(ptr noundef %94) #10
  store ptr null, ptr %14, align 8, !tbaa !3
  br label %96

95:                                               ; preds = %90
  br label %96

96:                                               ; preds = %95, %93
  %97 = load ptr, ptr %15, align 8, !tbaa !10
  %98 = icmp ne ptr %97, null
  br i1 %98, label %99, label %101

99:                                               ; preds = %96
  %100 = load ptr, ptr %15, align 8, !tbaa !10
  call void @st__free_table(ptr noundef %100)
  br label %101

101:                                              ; preds = %99, %96
  %102 = load ptr, ptr %12, align 8, !tbaa !14
  store ptr %102, ptr %6, align 8
  store i32 1, ptr %16, align 4
  br label %103

103:                                              ; preds = %101, %25
  call void @llvm.lifetime.end.p0(i64 8, ptr %15) #10
  call void @llvm.lifetime.end.p0(i64 8, ptr %14) #10
  call void @llvm.lifetime.end.p0(i64 4, ptr %13) #10
  call void @llvm.lifetime.end.p0(i64 8, ptr %12) #10
  %104 = load ptr, ptr %6, align 8
  ret ptr %104
}