; Function Attrs: nounwind uwtable
define noundef ptr @Mio_LibraryRead(ptr noundef %0, ptr noundef %1, ptr noundef %2, i32 noundef %3, i32 noundef %4) local_unnamed_addr #0 {
  %.not = icmp eq ptr %2, null
  br i1 %.not, label %13, label %6

6:                                                ; preds = %5
  %7 = tail call ptr @st__init_table(ptr noundef nonnull @strcmp, ptr noundef nonnull @st__strhash) #17
  %8 = tail call i32 @Mio_LibraryReadExclude(ptr noundef nonnull %2, ptr noundef %7)
  %9 = icmp eq i32 %8, -1
  br i1 %9, label %.sink.split, label %10

10:                                               ; preds = %6
  %11 = load ptr, ptr @stdout, align 8, !tbaa !3
  %12 = tail call i32 (ptr, ptr, ...) @fprintf(ptr noundef %11, ptr noundef nonnull @.str, i32 noundef %8) #17
  br label %13

13:                                               ; preds = %10, %5
  %.0 = phi ptr [ %7, %10 ], [ null, %5 ]
  %.not.i = icmp eq ptr %1, null
  br i1 %.not.i, label %28, label %14

14:                                               ; preds = %13
  %15 = tail call i64 @strlen(ptr noundef nonnull readonly dereferenceable(1) %1) #18
  %16 = add i64 %15, 1
  %17 = tail call noalias ptr @malloc(i64 noundef %16) #19
  %18 = tail call ptr @strcpy(ptr noundef nonnull dereferenceable(1) %17, ptr noundef nonnull readonly dereferenceable(1) %1) #17
  %19 = tail call ptr @Mio_LibraryReadBuffer(ptr noundef nonnull %1, i32 noundef 0, ptr noundef %.0, i32 noundef %3, i32 poison)
  %.not47 = icmp eq ptr %19, null
  br i1 %.not47, label %31, label %20

20:                                               ; preds = %14
  %21 = tail call ptr @Extra_FileNameGenericAppend(ptr noundef %0, ptr noundef nonnull @.str.1) #17
  %.not.i52 = icmp eq ptr %21, null
  br i1 %.not.i52, label %.thread57, label %22

22:                                               ; preds = %20
  %23 = tail call i64 @strlen(ptr noundef nonnull readonly dereferenceable(1) %21) #18
  %24 = add i64 %23, 1
  %25 = tail call noalias ptr @malloc(i64 noundef %24) #19
  %26 = tail call ptr @strcpy(ptr noundef nonnull dereferenceable(1) %25, ptr noundef nonnull readonly dereferenceable(1) %21) #17
  br label %.thread57

.thread57:                                        ; preds = %22, %20
  %27 = phi ptr [ %25, %22 ], [ null, %20 ]
  store ptr %27, ptr %19, align 8, !tbaa !8
  br label %.thread73

28:                                               ; preds = %13
  %29 = tail call fastcc ptr @Mio_LibraryReadOne(ptr noundef %0, i32 noundef 0, ptr noundef %.0, i32 noundef %3, i32 noundef %4)
  %30 = icmp eq ptr %29, null
  br i1 %30, label %40, label %.thread67

31:                                               ; preds = %14
  %32 = tail call ptr @Mio_LibraryReadBuffer(ptr noundef nonnull %17, i32 noundef 1, ptr noundef %.0, i32 noundef %3, i32 poison)
  %.not48 = icmp eq ptr %32, null
  br i1 %.not48, label %.thread73, label %33

33:                                               ; preds = %31
  %34 = tail call ptr @Extra_FileNameGenericAppend(ptr noundef %0, ptr noundef nonnull @.str.1) #17
  %.not.i54 = icmp eq ptr %34, null
  br i1 %.not.i54, label %42, label %35

35:                                               ; preds = %33
  %36 = tail call i64 @strlen(ptr noundef nonnull readonly dereferenceable(1) %34) #18
  %37 = add i64 %36, 1
  %38 = tail call noalias ptr @malloc(i64 noundef %37) #19
  %39 = tail call ptr @strcpy(ptr noundef nonnull dereferenceable(1) %38, ptr noundef nonnull readonly dereferenceable(1) %34) #17
  br label %42

40:                                               ; preds = %28
  %41 = tail call fastcc ptr @Mio_LibraryReadOne(ptr noundef %0, i32 noundef 1, ptr noundef %.0, i32 noundef %3, i32 noundef %4)
  %.not49 = icmp eq ptr %41, null
  br i1 %.not49, label %.thread67, label %.thread77

.thread77:                                        ; preds = %40
  %puts79 = tail call i32 @puts(ptr nonnull dereferenceable(1) @str)
  br label %.thread67

42:                                               ; preds = %35, %33
  %43 = phi ptr [ %38, %35 ], [ null, %33 ]
  store ptr %43, ptr %32, align 8, !tbaa !8
  %puts = tail call i32 @puts(ptr nonnull dereferenceable(1) @str)
  br label %.thread73

.thread73:                                        ; preds = %31, %.thread57, %42
  %.176 = phi ptr [ %32, %42 ], [ %19, %.thread57 ], [ null, %31 ]
  tail call void @free(ptr noundef nonnull %17) #17
  br label %.thread67

.thread67:                                        ; preds = %28, %40, %.thread77, %.thread73
  %.170 = phi ptr [ %.176, %.thread73 ], [ %41, %.thread77 ], [ %29, %28 ], [ null, %40 ]
  %.not51 = icmp eq ptr %.0, null
  br i1 %.not51, label %44, label %.sink.split

.sink.split:                                      ; preds = %.thread67, %6
  %.0.sink = phi ptr [ %7, %6 ], [ %.0, %.thread67 ]
  %.037.ph = phi ptr [ null, %6 ], [ %.170, %.thread67 ]
  tail call void @st__free_table(ptr noundef %.0.sink) #17
  br label %44

44:                                               ; preds = %.sink.split, %.thread67
  %.037 = phi ptr [ %.170, %.thread67 ], [ %.037.ph, %.sink.split ]
  ret ptr %.037
}